; Function Attrs: mustprogress uwtable
define internal fastcc noundef i32 @_ZN32pxrInternal_v0_24__pxrReserved__L35_GetNamespaceDepthForClassHierarchyERKNS_10PcpNodeRefE(ptr noundef nonnull align 8 dereferenceable(16) %0) unnamed_addr #0 personality ptr @__gxx_personality_v0 {
  %2 = alloca %"class.pxrInternal_v0_24__pxrReserved__::PcpNodeRef", align 8
  %3 = alloca %"struct.std::pair.16", align 8
  %4 = getelementptr inbounds nuw i8, ptr %2, i64 8
  call void @_ZN32pxrInternal_v0_24__pxrReserved__36Pcp_FindStartingNodeOfClassHierarchyERKNS_10PcpNodeRefE(ptr dead_on_unwind nonnull writable sret(%"struct.std::pair.16") align 8 %3, ptr noundef nonnull align 8 dereferenceable(16) %0)
  call void @llvm.memcpy.p0.p0.i64(ptr noundef nonnull align 8 dereferenceable(16) %2, ptr noundef nonnull align 8 dereferenceable(16) %3, i64 16, i1 false)
  %5 = call noundef i32 @_ZNK32pxrInternal_v0_24__pxrReserved__10PcpNodeRef10GetArcTypeEv(ptr noundef nonnull align 8 dereferenceable(16) %2)
  %6 = icmp eq i32 %5, 3
  br i1 %6, label %.lr.ph, label %._crit_edge

.lr.ph:                                           ; preds = %1, %.lr.ph
  %7 = call { ptr, i64 } @_ZNK32pxrInternal_v0_24__pxrReserved__10PcpNodeRef13GetParentNodeEv(ptr noundef nonnull align 8 dereferenceable(16) %2)
  %8 = extractvalue { ptr, i64 } %7, 0
  %9 = extractvalue { ptr, i64 } %7, 1
  store ptr %8, ptr %2, align 8
  store i64 %9, ptr %4, align 8
  %10 = call noundef i32 @_ZNK32pxrInternal_v0_24__pxrReserved__10PcpNodeRef10GetArcTypeEv(ptr noundef nonnull align 8 dereferenceable(16) %2)
  %11 = icmp eq i32 %10, 3
  br i1 %11, label %.lr.ph, label %._crit_edge, !llvm.loop !21

._crit_edge:                                      ; preds = %.lr.ph, %1
  %12 = call noundef i32 @_ZNK32pxrInternal_v0_24__pxrReserved__10PcpNodeRef17GetNamespaceDepthEv(ptr noundef nonnull align 8 dereferenceable(16) %2)
  ret i32 %12
}